#include <math.h>
#include <stdio.h>
#include <stdlib.h>
#include <string.h>

int main()
{
	int n, m, i, j, temp;
	int * array;
	scanf("%d %d", &n, &m);
	array = (int *)malloc(sizeof(int)*n);
	for (i=0; i<n; i++) {
		scanf("%d", &array[i]);
	}
	m = m % n;
	for (i=0; i<m; i++) {	
		temp = *(array+(n-1));
		for (j=n-1; j>0; j--) {
			*(array+j) = *(array+(j-1));
		}
		*(array+0) = temp;
	}
	for (i=0; i<n-1; i++) {
		printf("%d ", *(array+i));
	}
	printf("%d\n", *(array+i));
	free(array);
	return 0;
}
